target datalayout = "e-m:e-p270:32:32-p271:32:32-p272:64:64-i64:64-i128:128-f80:128-n8:16:32:64-S128"
target triple = "x86_64-unknown-linux-gnu"

%struct.TimersState = type { i64, i64, %struct.QemuSeqLock, %struct.QemuSpin, i16, i16, i64, i64, i64, i64, i64, ptr, ptr, ptr }
%struct.QemuSeqLock = type { i32 }
%struct.QemuSpin = type { i32 }

@timers_state = external global %struct.TimersState, align 8

; Function Attrs: nounwind sspstrong uwtable
define internal void @icount_adjust_vm(ptr noundef %opaque) #0 {
entry:
  %opaque.addr = alloca ptr, align 8
  store ptr %opaque, ptr %opaque.addr, align 8
  %0 = getelementptr inbounds %struct.TimersState, ptr @timers_state, i32 0, i32 12
  %1 = load ptr, ptr %0, align 8
  %call = call i64 @qemu_clock_get_ns(i32 noundef 1)
  %add = add i64 %call, 100000000
  call void @timer_mod(ptr noundef %1, i64 noundef %add)
  call void @icount_adjust()
  ret void
}