; Function Attrs: nounwind sspstrong uwtable
define internal void @icount_adjust_vm(ptr readnone captures(none) %opaque) #0 {
entry:
  %0 = load ptr, ptr getelementptr inbounds nuw (i8, ptr @timers_state, i64 80), align 8
  %call = tail call i64 @qemu_clock_get_ns(i32 noundef 1) #9
  %add = add i64 %call, 100000000
  tail call void @timer_mod(ptr noundef %0, i64 noundef %add) #9
  tail call fastcc void @icount_adjust()
  ret void
}